target datalayout = "e-m:e-p270:32:32-p271:32:32-p272:64:64-i64:64-i128:128-f80:128-n8:16:32:64-S128"
target triple = "x86_64-pc-linux-gnu"

%struct.AVFilterLink = type { ptr, ptr, ptr, ptr, i32, i32, i32, i32, %struct.AVRational, i32, i32, i32, %struct.AVChannelLayout, %struct.AVRational, ptr, i32, %struct.AVFilterFormatsConfig, %struct.AVFilterFormatsConfig }
%struct.AVChannelLayout = type { i32, i32, %union.anon, ptr }
%union.anon = type { i64 }
%struct.AVRational = type { i32, i32 }
%struct.AVFilterFormatsConfig = type { ptr, ptr, ptr, ptr, ptr }
%struct.AVFilterContext = type { ptr, ptr, ptr, ptr, ptr, i32, ptr, ptr, i32, ptr, ptr, i32, i32, ptr, ptr, ptr, ptr, i32, ptr, i32, i32 }
%struct.YADIFContext = type { ptr, i32, i32, i32, i32, ptr, ptr, ptr, ptr, ptr, ptr, ptr, ptr, i32, ptr, i32, %struct.CCFifo, i32, i32 }
%struct.CCFifo = type { ptr, ptr, %struct.AVRational, i32, i32, i32, i32, i32, ptr }
%struct.AVFrame = type { [8 x ptr], [8 x i32], ptr, i32, i32, i32, i32, i32, %struct.AVRational, i64, i64, %struct.AVRational, i32, ptr, i32, i32, [8 x ptr], ptr, i32, ptr, i32, i32, i32, i32, i32, i32, i32, i64, ptr, i32, ptr, ptr, i64, i64, i64, i64, ptr, %struct.AVChannelLayout, i64 }

; Function Attrs: nounwind uwtable
define internal i32 @return_frame(ptr noundef %0, i32 noundef %1) #0 {
  %3 = alloca i32, align 4
  %4 = alloca ptr, align 8
  %5 = alloca i32, align 4
  %6 = alloca ptr, align 8
  %7 = alloca ptr, align 8
  %8 = alloca i32, align 4
  %9 = alloca i32, align 4
  %10 = alloca i32, align 4
  %11 = alloca i64, align 8
  %12 = alloca i64, align 8
  store ptr %0, ptr %4, align 8, !tbaa !23
  store i32 %1, ptr %5, align 4, !tbaa !62
  call void @llvm.lifetime.start.p0(i64 8, ptr %6) #7
  %13 = load ptr, ptr %4, align 8, !tbaa !23
  %14 = getelementptr inbounds nuw %struct.AVFilterContext, ptr %13, i32 0, i32 9
  %15 = load ptr, ptr %14, align 8, !tbaa !24
  store ptr %15, ptr %6, align 8, !tbaa !34
  call void @llvm.lifetime.start.p0(i64 8, ptr %7) #7
  %16 = load ptr, ptr %4, align 8, !tbaa !23
  %17 = getelementptr inbounds nuw %struct.AVFilterContext, ptr %16, i32 0, i32 7
  %18 = load ptr, ptr %17, align 8, !tbaa !58
  %19 = getelementptr inbounds ptr, ptr %18, i64 0
  %20 = load ptr, ptr %19, align 8, !tbaa !4
  store ptr %20, ptr %7, align 8, !tbaa !4
  call void @llvm.lifetime.start.p0(i64 4, ptr %8) #7
  call void @llvm.lifetime.start.p0(i64 4, ptr %9) #7
  %21 = load ptr, ptr %6, align 8, !tbaa !34
  %22 = getelementptr inbounds nuw %struct.YADIFContext, ptr %21, i32 0, i32 2
  %23 = load i32, ptr %22, align 4, !tbaa !63
  %24 = icmp eq i32 %23, -1
  br i1 %24, label %25, label %47

25:                                               ; preds = %2
  %26 = load ptr, ptr %6, align 8, !tbaa !34
  %27 = getelementptr inbounds nuw %struct.YADIFContext, ptr %26, i32 0, i32 5
  %28 = load ptr, ptr %27, align 8, !tbaa !42
  %29 = getelementptr inbounds nuw %struct.AVFrame, ptr %28, i32 0, i32 21
  %30 = load i32, ptr %29, align 4, !tbaa !46
  %31 = and i32 %30, 8
  %32 = icmp ne i32 %31, 0
  br i1 %32, label %33, label %44

33:                                               ; preds = %25
  %34 = load ptr, ptr %6, align 8, !tbaa !34
  %35 = getelementptr inbounds nuw %struct.YADIFContext, ptr %34, i32 0, i32 5
  %36 = load ptr, ptr %35, align 8, !tbaa !42
  %37 = getelementptr inbounds nuw %struct.AVFrame, ptr %36, i32 0, i32 21
  %38 = load i32, ptr %37, align 4, !tbaa !46
  %39 = and i32 %38, 16
  %40 = icmp ne i32 %39, 0
  %41 = xor i1 %40, true
  %42 = xor i1 %41, true
  %43 = zext i1 %42 to i32
  br label %45

44:                                               ; preds = %25
  br label %45

45:                                               ; preds = %44, %33
  %46 = phi i32 [ %43, %33 ], [ 1, %44 ]
  store i32 %46, ptr %8, align 4, !tbaa !62
  br label %52

47:                                               ; preds = %2
  %48 = load ptr, ptr %6, align 8, !tbaa !34
  %49 = getelementptr inbounds nuw %struct.YADIFContext, ptr %48, i32 0, i32 2
  %50 = load i32, ptr %49, align 4, !tbaa !63
  %51 = xor i32 %50, 1
  store i32 %51, ptr %8, align 4, !tbaa !62
  br label %52

52:                                               ; preds = %47, %45
  %53 = load i32, ptr %5, align 4, !tbaa !62
  %54 = icmp ne i32 %53, 0
  br i1 %54, label %55, label %93

55:                                               ; preds = %52
  %56 = load ptr, ptr %7, align 8, !tbaa !4
  %57 = load ptr, ptr %7, align 8, !tbaa !4
  %58 = getelementptr inbounds nuw %struct.AVFilterLink, ptr %57, i32 0, i32 6
  %59 = load i32, ptr %58, align 8, !tbaa !59
  %60 = load ptr, ptr %7, align 8, !tbaa !4
  %61 = getelementptr inbounds nuw %struct.AVFilterLink, ptr %60, i32 0, i32 7
  %62 = load i32, ptr %61, align 4, !tbaa !60
  %63 = call ptr @ff_get_video_buffer(ptr noundef %56, i32 noundef %59, i32 noundef %62)
  %64 = load ptr, ptr %6, align 8, !tbaa !34
  %65 = getelementptr inbounds nuw %struct.YADIFContext, ptr %64, i32 0, i32 8
  store ptr %63, ptr %65, align 8, !tbaa !54
  %66 = load ptr, ptr %6, align 8, !tbaa !34
  %67 = getelementptr inbounds nuw %struct.YADIFContext, ptr %66, i32 0, i32 8
  %68 = load ptr, ptr %67, align 8, !tbaa !54
  %69 = icmp ne ptr %68, null
  br i1 %69, label %71, label %70

70:                                               ; preds = %55
  store i32 -12, ptr %3, align 4
  store i32 1, ptr %10, align 4
  br label %189

71:                                               ; preds = %55
  %72 = load ptr, ptr %6, align 8, !tbaa !34
  %73 = getelementptr inbounds nuw %struct.YADIFContext, ptr %72, i32 0, i32 8
  %74 = load ptr, ptr %73, align 8, !tbaa !54
  %75 = load ptr, ptr %6, align 8, !tbaa !34
  %76 = getelementptr inbounds nuw %struct.YADIFContext, ptr %75, i32 0, i32 5
  %77 = load ptr, ptr %76, align 8, !tbaa !42
  %78 = call i32 @av_frame_copy_props(ptr noundef %74, ptr noundef %77)
  %79 = load ptr, ptr %6, align 8, !tbaa !34
  %80 = getelementptr inbounds nuw %struct.YADIFContext, ptr %79, i32 0, i32 8
  %81 = load ptr, ptr %80, align 8, !tbaa !54
  %82 = getelementptr inbounds nuw %struct.AVFrame, ptr %81, i32 0, i32 21
  %83 = load i32, ptr %82, align 4, !tbaa !46
  %84 = and i32 %83, -9
  store i32 %84, ptr %82, align 4, !tbaa !46
  %85 = load ptr, ptr %6, align 8, !tbaa !34
  %86 = getelementptr inbounds nuw %struct.YADIFContext, ptr %85, i32 0, i32 17
  %87 = load i32, ptr %86, align 8, !tbaa !44
  %88 = icmp eq i32 %87, -1
  br i1 %88, label %89, label %92

89:                                               ; preds = %71
  %90 = load ptr, ptr %6, align 8, !tbaa !34
  %91 = getelementptr inbounds nuw %struct.YADIFContext, ptr %90, i32 0, i32 17
  store i32 0, ptr %91, align 8, !tbaa !44
  br label %92

92:                                               ; preds = %89, %71
  br label %93

93:                                               ; preds = %92, %52
  %94 = load ptr, ptr %6, align 8, !tbaa !34
  %95 = getelementptr inbounds nuw %struct.YADIFContext, ptr %94, i32 0, i32 9
  %96 = load ptr, ptr %95, align 8, !tbaa !64
  %97 = load ptr, ptr %4, align 8, !tbaa !23
  %98 = load ptr, ptr %6, align 8, !tbaa !34
  %99 = getelementptr inbounds nuw %struct.YADIFContext, ptr %98, i32 0, i32 8
  %100 = load ptr, ptr %99, align 8, !tbaa !54
  %101 = load i32, ptr %8, align 4, !tbaa !62
  %102 = load i32, ptr %5, align 4, !tbaa !62
  %103 = icmp ne i32 %102, 0
  %104 = xor i1 %103, true
  %105 = zext i1 %104 to i32
  %106 = xor i32 %101, %105
  %107 = load i32, ptr %8, align 4, !tbaa !62
  call void %96(ptr noundef %97, ptr noundef %100, i32 noundef %106, i32 noundef %107)
  %108 = load i32, ptr %5, align 4, !tbaa !62
  %109 = icmp ne i32 %108, 0
  br i1 %109, label %110, label %158

110:                                              ; preds = %93
  call void @llvm.lifetime.start.p0(i64 8, ptr %11) #7
  %111 = load ptr, ptr %6, align 8, !tbaa !34
  %112 = getelementptr inbounds nuw %struct.YADIFContext, ptr %111, i32 0, i32 5
  %113 = load ptr, ptr %112, align 8, !tbaa !42
  %114 = getelementptr inbounds nuw %struct.AVFrame, ptr %113, i32 0, i32 9
  %115 = load i64, ptr %114, align 8, !tbaa !55
  store i64 %115, ptr %11, align 8, !tbaa !65
  call void @llvm.lifetime.start.p0(i64 8, ptr %12) #7
  %116 = load ptr, ptr %6, align 8, !tbaa !34
  %117 = getelementptr inbounds nuw %struct.YADIFContext, ptr %116, i32 0, i32 6
  %118 = load ptr, ptr %117, align 8, !tbaa !43
  %119 = getelementptr inbounds nuw %struct.AVFrame, ptr %118, i32 0, i32 9
  %120 = load i64, ptr %119, align 8, !tbaa !55
  store i64 %120, ptr %12, align 8, !tbaa !65
  %121 = load i64, ptr %12, align 8, !tbaa !65
  %122 = icmp ne i64 %121, -9223372036854775808
  br i1 %122, label %123, label %152

123:                                              ; preds = %110
  %124 = load i64, ptr %11, align 8, !tbaa !65
  %125 = icmp ne i64 %124, -9223372036854775808
  br i1 %125, label %126, label %152

126:                                              ; preds = %123
  %127 = load i64, ptr %11, align 8, !tbaa !65
  %128 = load i64, ptr %12, align 8, !tbaa !65
  %129 = add nsw i64 %127, %128
  %130 = load ptr, ptr %6, align 8, !tbaa !34
  %131 = getelementptr inbounds nuw %struct.YADIFContext, ptr %130, i32 0, i32 8
  %132 = load ptr, ptr %131, align 8, !tbaa !54
  %133 = getelementptr inbounds nuw %struct.AVFrame, ptr %132, i32 0, i32 9
  store i64 %129, ptr %133, align 8, !tbaa !55
  %134 = load ptr, ptr %6, align 8, !tbaa !34
  %135 = getelementptr inbounds nuw %struct.YADIFContext, ptr %134, i32 0, i32 18
  %136 = load i32, ptr %135, align 4, !tbaa !56
  %137 = icmp eq i32 %136, 1
  br i1 %137, label %138, label %151

138:                                              ; preds = %126
  %139 = load ptr, ptr %6, align 8, !tbaa !34
  %140 = getelementptr inbounds nuw %struct.YADIFContext, ptr %139, i32 0, i32 8
  %141 = load ptr, ptr %140, align 8, !tbaa !54
  %142 = getelementptr inbounds nuw %struct.AVFrame, ptr %141, i32 0, i32 9
  %143 = load i64, ptr %142, align 8, !tbaa !55
  %144 = ashr i64 %143, 1
  store i64 %144, ptr %142, align 8, !tbaa !55
  %145 = load ptr, ptr %6, align 8, !tbaa !34
  %146 = getelementptr inbounds nuw %struct.YADIFContext, ptr %145, i32 0, i32 8
  %147 = load ptr, ptr %146, align 8, !tbaa !54
  %148 = getelementptr inbounds nuw %struct.AVFrame, ptr %147, i32 0, i32 38
  %149 = load i64, ptr %148, align 8, !tbaa !57
  %150 = ashr i64 %149, 1
  store i64 %150, ptr %148, align 8, !tbaa !57
  br label %151

151:                                              ; preds = %138, %126
  br label %157

152:                                              ; preds = %123, %110
  %153 = load ptr, ptr %6, align 8, !tbaa !34
  %154 = getelementptr inbounds nuw %struct.YADIFContext, ptr %153, i32 0, i32 8
  %155 = load ptr, ptr %154, align 8, !tbaa !54
  %156 = getelementptr inbounds nuw %struct.AVFrame, ptr %155, i32 0, i32 9
  store i64 -9223372036854775808, ptr %156, align 8, !tbaa !55
  br label %157

157:                                              ; preds = %152, %151
  call void @llvm.lifetime.end.p0(i64 8, ptr %12) #7
  call void @llvm.lifetime.end.p0(i64 8, ptr %11) #7
  br label %158

158:                                              ; preds = %157, %93
  %159 = load ptr, ptr %6, align 8, !tbaa !34
  %160 = getelementptr inbounds nuw %struct.YADIFContext, ptr %159, i32 0, i32 16
  %161 = load ptr, ptr %6, align 8, !tbaa !34
  %162 = getelementptr inbounds nuw %struct.YADIFContext, ptr %161, i32 0, i32 8
  %163 = load ptr, ptr %162, align 8, !tbaa !54
  %164 = call i32 @ff_ccfifo_inject(ptr noundef %160, ptr noundef %163)
  %165 = load ptr, ptr %4, align 8, !tbaa !23
  %166 = getelementptr inbounds nuw %struct.AVFilterContext, ptr %165, i32 0, i32 7
  %167 = load ptr, ptr %166, align 8, !tbaa !58
  %168 = getelementptr inbounds ptr, ptr %167, i64 0
  %169 = load ptr, ptr %168, align 8, !tbaa !4
  %170 = load ptr, ptr %6, align 8, !tbaa !34
  %171 = getelementptr inbounds nuw %struct.YADIFContext, ptr %170, i32 0, i32 8
  %172 = load ptr, ptr %171, align 8, !tbaa !54
  %173 = call i32 @ff_filter_frame(ptr noundef %169, ptr noundef %172)
  store i32 %173, ptr %9, align 4, !tbaa !62
  %174 = load ptr, ptr %6, align 8, !tbaa !34
  %175 = getelementptr inbounds nuw %struct.YADIFContext, ptr %174, i32 0, i32 1
  %176 = load i32, ptr %175, align 8, !tbaa !61
  %177 = and i32 %176, 1
  %178 = icmp ne i32 %177, 0
  br i1 %178, label %179, label %183

179:                                              ; preds = %158
  %180 = load i32, ptr %5, align 4, !tbaa !62
  %181 = icmp ne i32 %180, 0
  %182 = xor i1 %181, true
  br label %183

183:                                              ; preds = %179, %158
  %184 = phi i1 [ false, %158 ], [ %182, %179 ]
  %185 = zext i1 %184 to i32
  %186 = load ptr, ptr %6, align 8, !tbaa !34
  %187 = getelementptr inbounds nuw %struct.YADIFContext, ptr %186, i32 0, i32 4
  store i32 %185, ptr %187, align 4, !tbaa !36
  %188 = load i32, ptr %9, align 4, !tbaa !62
  store i32 %188, ptr %3, align 4
  store i32 1, ptr %10, align 4
  br label %189

189:                                              ; preds = %183, %70
  call void @llvm.lifetime.end.p0(i64 4, ptr %9) #7
  call void @llvm.lifetime.end.p0(i64 4, ptr %8) #7
  call void @llvm.lifetime.end.p0(i64 8, ptr %7) #7
  call void @llvm.lifetime.end.p0(i64 8, ptr %6) #7
  %190 = load i32, ptr %3, align 4
  ret i32 %190
}