; Function Attrs: nounwind uwtable
define internal fastcc i32 @return_frame(ptr noundef %0, i32 noundef range(i32 0, 2) %1) unnamed_addr #0 {
  %3 = getelementptr inbounds nuw i8, ptr %0, i64 72
  %4 = load ptr, ptr %3, align 8, !tbaa !19
  %5 = getelementptr inbounds nuw i8, ptr %0, i64 56
  %6 = load ptr, ptr %5, align 8, !tbaa !58
  %7 = load ptr, ptr %6, align 8, !tbaa !59
  %8 = getelementptr inbounds nuw i8, ptr %4, i64 12
  %9 = load i32, ptr %8, align 4, !tbaa !64
  %10 = icmp eq i32 %9, -1
  br i1 %10, label %11, label %19

11:                                               ; preds = %2
  %12 = getelementptr inbounds nuw i8, ptr %4, i64 24
  %13 = load ptr, ptr %12, align 8, !tbaa !36
  %14 = getelementptr inbounds nuw i8, ptr %13, i64 276
  %15 = load i32, ptr %14, align 4, !tbaa !47
  %16 = and i32 %15, 8
  %.not = icmp eq i32 %16, 0
  %17 = lshr i32 %15, 4
  %.lobit = and i32 %17, 1
  %18 = select i1 %.not, i32 1, i32 %.lobit
  br label %21

19:                                               ; preds = %2
  %20 = xor i32 %9, 1
  br label %21

21:                                               ; preds = %19, %11
  %.044 = phi i32 [ %18, %11 ], [ %20, %19 ]
  %.not49 = icmp eq i32 %1, 0
  br i1 %.not49, label %._crit_edge, label %22

._crit_edge:                                      ; preds = %21
  %.phi.trans.insert = getelementptr inbounds nuw i8, ptr %4, i64 48
  %.pre = load ptr, ptr %.phi.trans.insert, align 8, !tbaa !54
  br label %41

22:                                               ; preds = %21
  %23 = getelementptr inbounds nuw i8, ptr %7, i64 40
  %24 = load i32, ptr %23, align 8, !tbaa !61
  %25 = getelementptr inbounds nuw i8, ptr %7, i64 44
  %26 = load i32, ptr %25, align 4, !tbaa !62
  %27 = tail call ptr @ff_get_video_buffer(ptr noundef %7, i32 noundef %24, i32 noundef %26) #5
  %28 = getelementptr inbounds nuw i8, ptr %4, i64 48
  store ptr %27, ptr %28, align 8, !tbaa !54
  %.not50 = icmp eq ptr %27, null
  br i1 %.not50, label %89, label %29

29:                                               ; preds = %22
  %30 = getelementptr inbounds nuw i8, ptr %4, i64 24
  %31 = load ptr, ptr %30, align 8, !tbaa !36
  %32 = tail call i32 @av_frame_copy_props(ptr noundef nonnull %27, ptr noundef %31) #5
  %33 = load ptr, ptr %28, align 8, !tbaa !54
  %34 = getelementptr inbounds nuw i8, ptr %33, i64 276
  %35 = load i32, ptr %34, align 4, !tbaa !47
  %36 = and i32 %35, -9
  store i32 %36, ptr %34, align 4, !tbaa !47
  %37 = getelementptr inbounds nuw i8, ptr %4, i64 168
  %38 = load i32, ptr %37, align 8, !tbaa !38
  %39 = icmp eq i32 %38, -1
  br i1 %39, label %40, label %41

40:                                               ; preds = %29
  store i32 0, ptr %37, align 8, !tbaa !38
  br label %41

41:                                               ; preds = %._crit_edge, %29, %40
  %42 = phi ptr [ %.pre, %._crit_edge ], [ %33, %29 ], [ %33, %40 ]
  %43 = getelementptr inbounds nuw i8, ptr %4, i64 56
  %44 = load ptr, ptr %43, align 8, !tbaa !65
  %45 = getelementptr inbounds nuw i8, ptr %4, i64 48
  %46 = xor i32 %1, %.044
  %47 = xor i32 %46, 1
  tail call void %44(ptr noundef nonnull %0, ptr noundef %42, i32 noundef %47, i32 noundef %.044) #5
  br i1 %.not49, label %._crit_edge51, label %48

._crit_edge51:                                    ; preds = %41
  %.pre52 = load ptr, ptr %45, align 8, !tbaa !54
  br label %74

48:                                               ; preds = %41
  %49 = getelementptr inbounds nuw i8, ptr %4, i64 24
  %50 = load ptr, ptr %49, align 8, !tbaa !36
  %51 = getelementptr inbounds nuw i8, ptr %50, i64 136
  %52 = load i64, ptr %51, align 8, !tbaa !55
  %53 = getelementptr inbounds nuw i8, ptr %4, i64 32
  %54 = load ptr, ptr %53, align 8, !tbaa !37
  %55 = getelementptr inbounds nuw i8, ptr %54, i64 136
  %56 = load i64, ptr %55, align 8, !tbaa !55
  %57 = icmp ne i64 %56, -9223372036854775808
  %58 = icmp ne i64 %52, -9223372036854775808
  %or.cond = select i1 %57, i1 %58, i1 false
  br i1 %or.cond, label %59, label %71

59:                                               ; preds = %48
  %60 = add nsw i64 %56, %52
  %61 = load ptr, ptr %45, align 8, !tbaa !54
  %62 = getelementptr inbounds nuw i8, ptr %61, i64 136
  store i64 %60, ptr %62, align 8, !tbaa !55
  %63 = getelementptr inbounds nuw i8, ptr %4, i64 172
  %64 = load i32, ptr %63, align 4, !tbaa !56
  %65 = icmp eq i32 %64, 1
  br i1 %65, label %66, label %74

66:                                               ; preds = %59
  %67 = ashr i64 %60, 1
  store i64 %67, ptr %62, align 8, !tbaa !55
  %68 = getelementptr inbounds nuw i8, ptr %61, i64 408
  %69 = load i64, ptr %68, align 8, !tbaa !57
  %70 = ashr i64 %69, 1
  store i64 %70, ptr %68, align 8, !tbaa !57
  br label %74

71:                                               ; preds = %48
  %72 = load ptr, ptr %45, align 8, !tbaa !54
  %73 = getelementptr inbounds nuw i8, ptr %72, i64 136
  store i64 -9223372036854775808, ptr %73, align 8, !tbaa !55
  br label %74

74:                                               ; preds = %._crit_edge51, %71, %66, %59
  %75 = phi ptr [ %.pre52, %._crit_edge51 ], [ %72, %71 ], [ %61, %66 ], [ %61, %59 ]
  %76 = getelementptr inbounds nuw i8, ptr %4, i64 112
  %77 = tail call i32 @ff_ccfifo_inject(ptr noundef nonnull %76, ptr noundef %75) #5
  %78 = load ptr, ptr %5, align 8, !tbaa !58
  %79 = load ptr, ptr %78, align 8, !tbaa !59
  %80 = load ptr, ptr %45, align 8, !tbaa !54
  %81 = tail call i32 @ff_filter_frame(ptr noundef %79, ptr noundef %80) #5
  %82 = getelementptr inbounds nuw i8, ptr %4, i64 8
  %83 = load i32, ptr %82, align 8, !tbaa !63
  %84 = and i32 %83, 1
  %85 = icmp ne i32 %84, 0
  %86 = and i1 %.not49, %85
  %87 = zext i1 %86 to i32
  %88 = getelementptr inbounds nuw i8, ptr %4, i64 20
  store i32 %87, ptr %88, align 4, !tbaa !29
  br label %89

89:                                               ; preds = %22, %74
  %.0 = phi i32 [ %81, %74 ], [ -12, %22 ]
  ret i32 %.0
}